ccopy_reg
_reconstructor
p1
(cxmppd.modules.db_fake
DictWatch
p2
c__builtin__
dict
p3
(dp4
S'10.24.20.61'
p5
g1
(g2
g3
(dp6
S'acc'
p7
g1
(g2
g3
(dp8
S'name'
p9
S'ACC'
p10
sS'groups'
p11
g1
(g2
g3
(dtRp12
sS'roster'
p13
g1
(g2
g3
(dtRp14
sS'anon_allow'
p15
S'yes'
p16
sS'password'
p17
S'fpuWjQec'
p18
sS'storage'
p19
g1
(g2
g3
(dtRp20
stRp21
sVreplica_send
p22
g1
(g2
g3
(dp23
g9
Vreplica_send
p24
sg11
g1
(g2
g3
(dtRp25
sg13
g1
(g2
g3
(dp26
Vams.10.24.20.61
p27
(dp28
S'state'
p29
S''
sS'subscription'
p30
S'to'
p31
sstRp32
sg15
g16
sg17
Vsecret
p33
sg19
g1
(g2
g3
(dtRp34
stRp35
sS'df'
p36
g1
(g2
g3
(dp37
g9
S'DF'
p38
sg11
g1
(g2
g3
(dtRp39
sg13
g1
(g2
g3
(dtRp40
sg15
g16
sg17
S'hUBcbady'
p41
sg19
g1
(g2
g3
(dtRp42
stRp43
sVdell_sender
p44
g1
(g2
g3
(dp45
g9
Vdell_sender
p46
sg11
g1
(g2
g3
(dtRp47
sg13
g1
(g2
g3
(dp48
Vams.10.24.20.61
p49
(dp50
g29
S''
sg30
g31
sstRp51
sg15
g16
sg17
Vsecret
p52
sg19
g1
(g2
g3
(dtRp53
stRp54
sVdell
p55
g1
(g2
g3
(dp56
g9
Vdell
p57
sg11
g1
(g2
g3
(dtRp58
sg13
g1
(g2
g3
(dp59
Vams.10.24.20.61
p60
(dp61
g29
S''
sg30
g31
sstRp62
sg15
g16
sg17
Vsecret
p63
sg19
g1
(g2
g3
(dtRp64
stRp65
sVdell_receiver
p66
g1
(g2
g3
(dp67
g9
Vdell_receiver
p68
sg11
g1
(g2
g3
(dtRp69
sg13
g1
(g2
g3
(dp70
Vams.10.24.20.61
p71
(dp72
g29
S''
sg30
g31
sstRp73
sg15
g16
sg17
Vsecret
p74
sg19
g1
(g2
g3
(dtRp75
stRp76
sS'ams'
p77
g1
(g2
g3
(dp78
g9
S'AMS'
p79
sg11
g1
(g2
g3
(dtRp80
sg13
g1
(g2
g3
(dp81
S'dell_sender@10.24.20.61'
p82
(dp83
g29
S''
sg30
S'from'
p84
ssS'replica_send@10.24.20.61'
p85
(dp86
g29
S''
sg30
g84
ssS'dell_receiver@10.24.20.61'
p87
(dp88
g29
S''
sg30
g84
ssS'dell@10.24.20.61'
p89
(dp90
g29
S''
sg30
g84
sstRp91
sg15
g16
sg17
S'HtEhpYYq'
p92
sg19
g1
(g2
g3
(dtRp93
stRp94
sS'__ir__'
p95
(dp96
g15
g16
sg17
S'test'
p97
sg19
(dp98
S'karma'
p99
(dp100
S'down'
p101
I307200
sS'tot_up'
p102
I0
sS'tot_down'
p103
I0
sS'up'
p104
I307200307200307200
sS'last_time'
p105
F0
sssg11
(dp106
sg13
(dp107
sstRp108
stRp109
.