ccopy_reg
_reconstructor
p1
(cxmppd.modules.db_fake
DictWatch
p2
c__builtin__
dict
p3
(dp4
S'10.24.20.61'
p5
g1
(g2
g3
(dp6
S'acc'
p7
g1
(g2
g3
(dp8
S'name'
p9
S'ACC'
p10
sS'groups'
p11
g1
(g2
g3
(dtRp12
sS'roster'
p13
g1
(g2
g3
(dtRp14
sS'anon_allow'
p15
S'yes'
p16
sS'password'
p17
S'fpuWjQec'
p18
sS'storage'
p19
g1
(g2
g3
(dtRp20
stRp21
sVreplica_send
p22
g1
(g2
g3
(dp23
S'name'
p24
Vreplica_send
p25
sS'groups'
p26
g1
(g2
g3
(dtRp27
sS'roster'
p28
g1
(g2
g3
(dp29
Vams.10.24.20.61
p30
(dp31
S'state'
p32
S''
sS'subscription'
p33
S'to'
p34
sstRp35
sS'anon_allow'
p36
S'yes'
p37
sS'password'
p38
Vsecret
p39
sS'storage'
p40
g1
(g2
g3
(dtRp41
stRp42
sS'df'
p43
g1
(g2
g3
(dp44
g9
S'DF'
p45
sg11
g1
(g2
g3
(dtRp46
sg13
g1
(g2
g3
(dtRp47
sg15
g16
sg17
S'hUBcbady'
p48
sg19
g1
(g2
g3
(dtRp49
stRp50
sVdell_sender
p51
g1
(g2
g3
(dp52
g24
Vdell_sender
p53
sg26
g1
(g2
g3
(dtRp54
sg28
g1
(g2
g3
(dp55
Vams.10.24.20.61
p56
(dp57
g32
S''
sg33
g34
sstRp58
sg36
g37
sg38
Vsecret
p59
sg40
g1
(g2
g3
(dtRp60
stRp61
sVdell
p62
g1
(g2
g3
(dp63
g24
Vdell
p64
sg26
g1
(g2
g3
(dtRp65
sg28
g1
(g2
g3
(dp66
Vams.10.24.20.61
p67
(dp68
g32
S''
sg33
g34
sstRp69
sg36
g37
sg38
Vsecret
p70
sg40
g1
(g2
g3
(dtRp71
stRp72
sVdell_receiver
p73
g1
(g2
g3
(dp74
g24
Vdell_receiver
p75
sg26
g1
(g2
g3
(dtRp76
sg28
g1
(g2
g3
(dp77
Vams.10.24.20.61
p78
(dp79
g32
S''
sg33
g34
sstRp80
sg36
g37
sg38
Vsecret
p81
sg40
g1
(g2
g3
(dtRp82
stRp83
sVlubuntu1_receiver
p84
g1
(g2
g3
(dp85
S'name'
p86
Vlubuntu1_receiver
p87
sS'groups'
p88
g1
(g2
g3
(dtRp89
sS'roster'
p90
g1
(g2
g3
(dp91
Vams.10.24.20.61
p92
(dp93
S'state'
p94
S''
sS'subscription'
p95
S'to'
p96
sstRp97
sS'anon_allow'
p98
S'yes'
p99
sS'password'
p100
Vsecret
p101
sS'storage'
p102
g1
(g2
g3
(dtRp103
stRp104
sVlubuntu1_sender
p105
g1
(g2
g3
(dp106
g86
Vlubuntu1_sender
p107
sg88
g1
(g2
g3
(dtRp108
sg90
g1
(g2
g3
(dp109
Vams.10.24.20.61
p110
(dp111
g94
S''
sg95
g96
sstRp112
sg98
g99
sg100
Vsecret
p113
sg102
g1
(g2
g3
(dtRp114
stRp115
sS'ams'
p116
g1
(g2
g3
(dp117
g9
S'AMS'
p118
sg11
g1
(g2
g3
(dtRp119
sg13
g1
(g2
g3
(dtRp120
sg15
g16
sg17
S'HtEhpYYq'
p121
sg19
g1
(g2
g3
(dtRp122
stRp123
sS'__ir__'
p124
(dp125
g15
g16
sg17
S'test'
p126
sg19
(dp127
S'karma'
p128
(dp129
S'down'
p130
I307200
sS'tot_up'
p131
I0
sS'tot_down'
p132
I0
sS'up'
p133
I307200307200307200
sS'last_time'
p134
F0
sssg11
(dp135
sg13
(dp136
sstRp137
stRp138
.