ccopy_reg
_reconstructor
p1
(cxmppd.modules.db_fake
DictWatch
p2
c__builtin__
dict
p3
(dp4
S'10.24.20.61'
p5
g1
(g2
g3
(dp6
S'acc'
p7
g1
(g2
g3
(dp8
S'name'
p9
S'ACC'
p10
sS'groups'
p11
g1
(g2
g3
(dtRp12
sS'roster'
p13
g1
(g2
g3
(dtRp14
sS'anon_allow'
p15
S'yes'
p16
sS'password'
p17
S'OgpUvBjU'
p18
sS'storage'
p19
g1
(g2
g3
(dtRp20
stRp21
sVlubuntu2_sender
p22
g1
(g2
g3
(dp23
S'name'
p24
Vlubuntu2_sender
p25
sS'groups'
p26
g1
(g2
g3
(dtRp27
sS'roster'
p28
g1
(g2
g3
(dp29
Vams.10.24.20.61
p30
(dp31
S'state'
p32
S''
sS'subscription'
p33
S'to'
p34
sstRp35
sS'anon_allow'
p36
S'yes'
p37
sS'password'
p38
Vsecret
p39
sS'storage'
p40
g1
(g2
g3
(dtRp41
stRp42
sVreplica_send
p43
g1
(g2
g3
(dp44
S'name'
p45
Vreplica_send
p46
sS'groups'
p47
g1
(g2
g3
(dtRp48
sS'roster'
p49
g1
(g2
g3
(dp50
Vams.10.24.20.61
p51
(dp52
S'state'
p53
S''
sS'subscription'
p54
S'to'
p55
sstRp56
sS'anon_allow'
p57
S'yes'
p58
sS'password'
p59
Vsecret
p60
sS'storage'
p61
g1
(g2
g3
(dtRp62
stRp63
sS'df'
p64
g1
(g2
g3
(dp65
g9
S'DF'
p66
sg11
g1
(g2
g3
(dtRp67
sg13
g1
(g2
g3
(dtRp68
sg15
g16
sg17
S'RvEBktMi'
p69
sg19
g1
(g2
g3
(dtRp70
stRp71
sVdell_sender
p72
g1
(g2
g3
(dp73
g45
Vdell_sender
p74
sg47
g1
(g2
g3
(dtRp75
sg49
g1
(g2
g3
(dp76
Vams.10.24.20.61
p77
(dp78
g53
S''
sg54
g55
sstRp79
sg57
g58
sg59
Vsecret
p80
sg61
g1
(g2
g3
(dtRp81
stRp82
sVdell
p83
g1
(g2
g3
(dp84
g45
Vdell
p85
sg47
g1
(g2
g3
(dtRp86
sg49
g1
(g2
g3
(dp87
Vams.10.24.20.61
p88
(dp89
g53
S''
sg54
g55
sstRp90
sg57
g58
sg59
Vsecret
p91
sg61
g1
(g2
g3
(dtRp92
stRp93
sVdell_receiver
p94
g1
(g2
g3
(dp95
g45
Vdell_receiver
p96
sg47
g1
(g2
g3
(dtRp97
sg49
g1
(g2
g3
(dp98
Vams.10.24.20.61
p99
(dp100
g53
S''
sg54
g55
sstRp101
sg57
g58
sg59
Vsecret
p102
sg61
g1
(g2
g3
(dtRp103
stRp104
sVlubuntu2_receiver
p105
g1
(g2
g3
(dp106
g24
Vlubuntu2_receiver
p107
sg26
g1
(g2
g3
(dtRp108
sg28
g1
(g2
g3
(dp109
Vams.10.24.20.61
p110
(dp111
g32
S''
sg33
g34
sstRp112
sg36
g37
sg38
Vsecret
p113
sg40
g1
(g2
g3
(dtRp114
stRp115
sVlubuntu1_receiver
p116
g1
(g2
g3
(dp117
S'name'
p118
Vlubuntu1_receiver
p119
sS'groups'
p120
g1
(g2
g3
(dtRp121
sS'roster'
p122
g1
(g2
g3
(dp123
Vams.10.24.20.61
p124
(dp125
S'state'
p126
S''
sS'subscription'
p127
S'to'
p128
sstRp129
sS'anon_allow'
p130
S'yes'
p131
sS'password'
p132
Vsecret
p133
sS'storage'
p134
g1
(g2
g3
(dtRp135
stRp136
sVlubuntu1_sender
p137
g1
(g2
g3
(dp138
g118
Vlubuntu1_sender
p139
sg120
g1
(g2
g3
(dtRp140
sg122
g1
(g2
g3
(dp141
Vams.10.24.20.61
p142
(dp143
g126
S''
sg127
g128
sstRp144
sg130
g131
sg132
Vsecret
p145
sg134
g1
(g2
g3
(dtRp146
stRp147
sS'ams'
p148
g1
(g2
g3
(dp149
g9
S'AMS'
p150
sg11
g1
(g2
g3
(dtRp151
sg13
g1
(g2
g3
(dp152
S'lubuntu2_sender@10.24.20.61'
p153
(dp154
S'state'
p155
S''
sS'subscription'
p156
S'from'
p157
ssS'lubuntu1_sender@10.24.20.61'
p158
(dp159
g155
S''
sg156
g157
ssS'lubuntu2_receiver@10.24.20.61'
p160
(dp161
g155
S''
sg156
g157
ssS'lubuntu1_receiver@10.24.20.61'
p162
(dp163
g155
S''
sg156
g157
ssS'dell_sender@10.24.20.61'
p164
(dp165
g155
S''
sg156
g157
ssS'dell_receiver@10.24.20.61'
p166
(dp167
g155
S''
sg156
g157
sstRp168
sg15
g16
sg17
S'DbWrvxBP'
p169
sg19
g1
(g2
g3
(dtRp170
stRp171
sS'__ir__'
p172
(dp173
g15
g16
sg17
S'test'
p174
sg19
(dp175
S'karma'
p176
(dp177
S'down'
p178
I307200
sS'tot_up'
p179
I0
sS'tot_down'
p180
I0
sS'up'
p181
I307200307200307200
sS'last_time'
p182
F0
sssg11
(dp183
sg13
(dp184
sstRp185
stRp186
.