ccopy_reg
_reconstructor
p1
(cxmppd.modules.db_fake
DictWatch
p2
c__builtin__
dict
p3
(dp4
S'10.24.20.61'
p5
g1
(g2
g3
(dp6
S'acc'
p7
g1
(g2
g3
(dp8
S'name'
p9
S'ACC'
p10
sS'groups'
p11
g1
(g2
g3
(dtRp12
sS'roster'
p13
g1
(g2
g3
(dtRp14
sS'anon_allow'
p15
S'yes'
p16
sS'password'
p17
S'fpuWjQec'
p18
sS'storage'
p19
g1
(g2
g3
(dtRp20
stRp21
sVreplica_send
p22
g1
(g2
g3
(dp23
S'name'
p24
Vreplica_send
p25
sS'groups'
p26
g1
(g2
g3
(dtRp27
sS'roster'
p28
g1
(g2
g3
(dp29
Vams.10.24.20.61
p30
(dp31
S'state'
p32
S''
sS'subscription'
p33
S'to'
p34
sstRp35
sS'anon_allow'
p36
S'yes'
p37
sS'password'
p38
Vsecret
p39
sS'storage'
p40
g1
(g2
g3
(dtRp41
stRp42
sS'df'
p43
g1
(g2
g3
(dp44
g9
S'DF'
p45
sg11
g1
(g2
g3
(dtRp46
sg13
g1
(g2
g3
(dtRp47
sg15
g16
sg17
S'hUBcbady'
p48
sg19
g1
(g2
g3
(dtRp49
stRp50
sVdell_sender
p51
g1
(g2
g3
(dp52
g24
Vdell_sender
p53
sg26
g1
(g2
g3
(dtRp54
sg28
g1
(g2
g3
(dp55
Vams.10.24.20.61
p56
(dp57
g32
S''
sg33
g34
sstRp58
sg36
g37
sg38
Vsecret
p59
sg40
g1
(g2
g3
(dtRp60
stRp61
sVdell
p62
g1
(g2
g3
(dp63
g24
Vdell
p64
sg26
g1
(g2
g3
(dtRp65
sg28
g1
(g2
g3
(dp66
Vams.10.24.20.61
p67
(dp68
g32
S''
sg33
g34
sstRp69
sg36
g37
sg38
Vsecret
p70
sg40
g1
(g2
g3
(dtRp71
stRp72
sVdell_receiver
p73
g1
(g2
g3
(dp74
g24
Vdell_receiver
p75
sg26
g1
(g2
g3
(dtRp76
sg28
g1
(g2
g3
(dp77
Vams.10.24.20.61
p78
(dp79
g32
S''
sg33
g34
sstRp80
sg36
g37
sg38
Vsecret
p81
sg40
g1
(g2
g3
(dtRp82
stRp83
sS'ams'
p84
g1
(g2
g3
(dp85
g9
S'AMS'
p86
sg11
g1
(g2
g3
(dtRp87
sg13
g1
(g2
g3
(dp88
S'dell_sender@10.24.20.61'
p89
(dp90
S'state'
p91
S''
sS'subscription'
p92
S'from'
p93
ssS'dell_receiver@10.24.20.61'
p94
(dp95
g91
S''
sg92
g93
sstRp96
sg15
g16
sg17
S'HtEhpYYq'
p97
sg19
g1
(g2
g3
(dtRp98
stRp99
sS'__ir__'
p100
(dp101
g15
g16
sg17
S'test'
p102
sg19
(dp103
S'karma'
p104
(dp105
S'down'
p106
I307200
sS'tot_up'
p107
I0
sS'tot_down'
p108
I0
sS'up'
p109
I307200307200307200
sS'last_time'
p110
F0
sssg11
(dp111
sg13
(dp112
sstRp113
stRp114
.