ccopy_reg
_reconstructor
p1
(cxmppd.modules.db_fake
DictWatch
p2
c__builtin__
dict
p3
(dp4
S'10.24.20.61'
p5
g1
(g2
g3
(dp6
S'acc'
p7
g1
(g2
g3
(dp8
S'name'
p9
S'ACC'
p10
sS'groups'
p11
g1
(g2
g3
(dtRp12
sS'roster'
p13
g1
(g2
g3
(dtRp14
sS'anon_allow'
p15
S'yes'
p16
sS'password'
p17
S'fpuWjQec'
p18
sS'storage'
p19
g1
(g2
g3
(dtRp20
stRp21
sS'df'
p22
g1
(g2
g3
(dp23
g9
S'DF'
p24
sg11
g1
(g2
g3
(dtRp25
sg13
g1
(g2
g3
(dtRp26
sg15
g16
sg17
S'hUBcbady'
p27
sg19
g1
(g2
g3
(dtRp28
stRp29
sS'ams'
p30
g1
(g2
g3
(dp31
g9
S'AMS'
p32
sg11
g1
(g2
g3
(dtRp33
sg13
g1
(g2
g3
(dp34
S'replica_send@10.24.20.61'
p35
(dp36
S'state'
p37
S''
sS'subscription'
p38
S'from'
p39
sstRp40
sg15
g16
sg17
S'HtEhpYYq'
p41
sg19
g1
(g2
g3
(dtRp42
stRp43
sVreplica_send
p44
g1
(g2
g3
(dp45
g9
Vreplica_send
p46
sg11
g1
(g2
g3
(dtRp47
sg13
g1
(g2
g3
(dp48
Vams.10.24.20.61
p49
(dp50
g37
S''
sg38
S'to'
p51
sstRp52
sg15
g16
sg17
Vsecret
p53
sg19
g1
(g2
g3
(dtRp54
stRp55
sS'__ir__'
p56
(dp57
g15
g16
sg17
S'test'
p58
sg19
(dp59
S'karma'
p60
(dp61
S'down'
p62
I307200
sS'tot_up'
p63
I0
sS'tot_down'
p64
I0
sS'up'
p65
I307200307200307200
sS'last_time'
p66
F0
sssg11
(dp67
sg13
(dp68
sstRp69
stRp70
.