ccopy_reg
_reconstructor
p1
(cxmppd.modules.db_fake
DictWatch
p2
c__builtin__
dict
p3
(dp4
S'10.24.20.61'
p5
g1
(g2
g3
(dp6
S'acc'
p7
g1
(g2
g3
(dp8
S'name'
p9
S'ACC'
p10
sS'groups'
p11
g1
(g2
g3
(dtRp12
sS'roster'
p13
g1
(g2
g3
(dtRp14
sS'anon_allow'
p15
S'yes'
p16
sS'password'
p17
S'fpuWjQec'
p18
sS'storage'
p19
g1
(g2
g3
(dtRp20
stRp21
sVlubuntu2_sender
p22
g1
(g2
g3
(dp23
g9
Vlubuntu2_sender
p24
sg11
g1
(g2
g3
(dtRp25
sg13
g1
(g2
g3
(dp26
Vams.10.24.20.61
p27
(dp28
S'state'
p29
S''
sS'subscription'
p30
S'to'
p31
sstRp32
sg15
g16
sg17
Vsecret
p33
sg19
g1
(g2
g3
(dtRp34
stRp35
sVreplica_send
p36
g1
(g2
g3
(dp37
S'name'
p38
Vreplica_send
p39
sS'groups'
p40
g1
(g2
g3
(dtRp41
sS'roster'
p42
g1
(g2
g3
(dp43
Vams.10.24.20.61
p44
(dp45
S'state'
p46
S''
sS'subscription'
p47
S'to'
p48
sstRp49
sS'anon_allow'
p50
S'yes'
p51
sS'password'
p52
Vsecret
p53
sS'storage'
p54
g1
(g2
g3
(dtRp55
stRp56
sS'df'
p57
g1
(g2
g3
(dp58
g9
S'DF'
p59
sg11
g1
(g2
g3
(dtRp60
sg13
g1
(g2
g3
(dtRp61
sg15
g16
sg17
S'hUBcbady'
p62
sg19
g1
(g2
g3
(dtRp63
stRp64
sVdell_sender
p65
g1
(g2
g3
(dp66
g38
Vdell_sender
p67
sg40
g1
(g2
g3
(dtRp68
sg42
g1
(g2
g3
(dp69
Vams.10.24.20.61
p70
(dp71
g46
S''
sg47
g48
sstRp72
sg50
g51
sg52
Vsecret
p73
sg54
g1
(g2
g3
(dtRp74
stRp75
sVdell
p76
g1
(g2
g3
(dp77
g38
Vdell
p78
sg40
g1
(g2
g3
(dtRp79
sg42
g1
(g2
g3
(dp80
Vams.10.24.20.61
p81
(dp82
g46
S''
sg47
g48
sstRp83
sg50
g51
sg52
Vsecret
p84
sg54
g1
(g2
g3
(dtRp85
stRp86
sVdell_receiver
p87
g1
(g2
g3
(dp88
g38
Vdell_receiver
p89
sg40
g1
(g2
g3
(dtRp90
sg42
g1
(g2
g3
(dp91
Vams.10.24.20.61
p92
(dp93
g46
S''
sg47
g48
sstRp94
sg50
g51
sg52
Vsecret
p95
sg54
g1
(g2
g3
(dtRp96
stRp97
sVlubuntu2_receiver
p98
g1
(g2
g3
(dp99
g9
Vlubuntu2_receiver
p100
sg11
g1
(g2
g3
(dtRp101
sg13
g1
(g2
g3
(dp102
Vams.10.24.20.61
p103
(dp104
g29
S''
sg30
g31
sstRp105
sg15
g16
sg17
Vsecret
p106
sg19
g1
(g2
g3
(dtRp107
stRp108
sVlubuntu1_receiver
p109
g1
(g2
g3
(dp110
S'name'
p111
Vlubuntu1_receiver
p112
sS'groups'
p113
g1
(g2
g3
(dtRp114
sS'roster'
p115
g1
(g2
g3
(dp116
Vams.10.24.20.61
p117
(dp118
S'state'
p119
S''
sS'subscription'
p120
S'to'
p121
sstRp122
sS'anon_allow'
p123
S'yes'
p124
sS'password'
p125
Vsecret
p126
sS'storage'
p127
g1
(g2
g3
(dtRp128
stRp129
sVlubuntu1_sender
p130
g1
(g2
g3
(dp131
g111
Vlubuntu1_sender
p132
sg113
g1
(g2
g3
(dtRp133
sg115
g1
(g2
g3
(dp134
Vams.10.24.20.61
p135
(dp136
g119
S''
sg120
g121
sstRp137
sg123
g124
sg125
Vsecret
p138
sg127
g1
(g2
g3
(dtRp139
stRp140
sS'ams'
p141
g1
(g2
g3
(dp142
g9
S'AMS'
p143
sg11
g1
(g2
g3
(dtRp144
sg13
g1
(g2
g3
(dp145
S'lubuntu2_sender@10.24.20.61'
p146
(dp147
g29
S''
sg30
S'from'
p148
ssS'lubuntu1_sender@10.24.20.61'
p149
(dp150
g29
S''
sg30
g148
ssS'lubuntu2_receiver@10.24.20.61'
p151
(dp152
g29
S''
sg30
g148
ssS'lubuntu1_receiver@10.24.20.61'
p153
(dp154
g29
S''
sg30
g148
ssS'dell_sender@10.24.20.61'
p155
(dp156
g29
S''
sg30
g148
ssS'dell_receiver@10.24.20.61'
p157
(dp158
g29
S''
sg30
g148
sstRp159
sg15
g16
sg17
S'HtEhpYYq'
p160
sg19
g1
(g2
g3
(dtRp161
stRp162
sS'__ir__'
p163
(dp164
g15
g16
sg17
S'test'
p165
sg19
(dp166
S'karma'
p167
(dp168
S'down'
p169
I307200
sS'tot_up'
p170
I0
sS'tot_down'
p171
I0
sS'up'
p172
I307200307200307200
sS'last_time'
p173
F0
sssg11
(dp174
sg13
(dp175
sstRp176
stRp177
.